; Function Attrs: mustprogress uwtable
define dso_local noundef i32 @_ZN4absl14flags_internal16GetFlagsHelpModeEv() local_unnamed_addr #0 personality ptr @__gxx_personality_v0 {
  %1 = load atomic i8, ptr @_ZGVZN4absl14flags_internal12_GLOBAL__N_119HelpAttributesMutexEvE5mutex acquire, align 8
  %2 = icmp eq i8 %1, 0
  br i1 %2, label %3, label %_ZN4absl14flags_internal12_GLOBAL__N_119HelpAttributesMutexEv.exit, !prof !48

3:                                                ; preds = %0
  %4 = tail call i32 @__cxa_guard_acquire(ptr nonnull @_ZGVZN4absl14flags_internal12_GLOBAL__N_119HelpAttributesMutexEvE5mutex) #24
  %.not.i = icmp eq i32 %4, 0
  br i1 %.not.i, label %_ZN4absl14flags_internal12_GLOBAL__N_119HelpAttributesMutexEv.exit, label %5

5:                                                ; preds = %3
  store i64 0, ptr @_ZZN4absl14flags_internal12_GLOBAL__N_119HelpAttributesMutexEvE5mutex, align 8, !tbaa !49
  tail call void @__cxa_guard_release(ptr nonnull @_ZGVZN4absl14flags_internal12_GLOBAL__N_119HelpAttributesMutexEvE5mutex) #24
  br label %_ZN4absl14flags_internal12_GLOBAL__N_119HelpAttributesMutexEv.exit

_ZN4absl14flags_internal12_GLOBAL__N_119HelpAttributesMutexEv.exit: ; preds = %0, %3, %5
  tail call void @_ZN4absl5Mutex4LockEv(ptr noundef nonnull align 8 dereferenceable(8) @_ZZN4absl14flags_internal12_GLOBAL__N_119HelpAttributesMutexEvE5mutex)
  %6 = load i32, ptr @_ZN4absl14flags_internal12_GLOBAL__N_19help_modeE, align 4, !tbaa !51
  invoke void @_ZN4absl5Mutex6UnlockEv(ptr noundef nonnull align 8 dereferenceable(8) @_ZZN4absl14flags_internal12_GLOBAL__N_119HelpAttributesMutexEvE5mutex)
          to label %_ZN4absl9MutexLockD2Ev.exit unwind label %7

7:                                                ; preds = %_ZN4absl14flags_internal12_GLOBAL__N_119HelpAttributesMutexEv.exit
  %8 = landingpad { ptr, i32 }
          catch ptr null
  %9 = extractvalue { ptr, i32 } %8, 0
  tail call void @__clang_call_terminate(ptr %9) #26
  unreachable

_ZN4absl9MutexLockD2Ev.exit:                      ; preds = %_ZN4absl14flags_internal12_GLOBAL__N_119HelpAttributesMutexEv.exit
  ret i32 %6
}